target datalayout = "e-m:e-p270:32:32-p271:32:32-p272:64:64-i64:64-i128:128-f80:128-n8:16:32:64-S128"
target triple = "x86_64-pc-linux-gnu"

%"class.std::__cxx11::basic_string" = type { %"struct.std::__cxx11::basic_string<char>::_Alloc_hider", i64, %union.anon }
%"struct.std::__cxx11::basic_string<char>::_Alloc_hider" = type { ptr }
%union.anon = type { i64, [8 x i8] }
%"struct.std::_Vector_base" = type { %"struct.std::_Vector_base<long, std::allocator<long>>::_Vector_impl" }
%"struct.std::_Vector_base<long, std::allocator<long>>::_Vector_impl" = type { %"struct.std::_Vector_base<long, std::allocator<long>>::_Vector_impl_data" }
%"struct.std::_Vector_base<long, std::allocator<long>>::_Vector_impl_data" = type { ptr, ptr, ptr }
%"class.std::shared_ptr" = type { %"class.std::__shared_ptr" }
%"class.std::__shared_ptr" = type { ptr, %"class.std::__shared_count" }
%"class.std::__shared_count" = type { ptr }
%"class.std::shared_ptr.7" = type { %"class.std::__shared_ptr.8" }
%"class.std::__shared_ptr.8" = type { ptr, %"class.std::__shared_count" }
%"class.std::vector" = type { %"struct.std::_Vector_base" }
%"class.std::vector.10" = type { %"struct.std::_Vector_base.11" }
%"struct.std::_Vector_base.11" = type { %"struct.std::_Vector_base<std::__cxx11::basic_string<char>, std::allocator<std::__cxx11::basic_string<char>>>::_Vector_impl" }
%"struct.std::_Vector_base<std::__cxx11::basic_string<char>, std::allocator<std::__cxx11::basic_string<char>>>::_Vector_impl" = type { %"struct.std::_Vector_base<std::__cxx11::basic_string<char>, std::allocator<std::__cxx11::basic_string<char>>>::_Vector_impl_data" }
%"struct.std::_Vector_base<std::__cxx11::basic_string<char>, std::allocator<std::__cxx11::basic_string<char>>>::_Vector_impl_data" = type { ptr, ptr, ptr }
%"class.std::allocator.23" = type { i8 }
%"class.arrow::util::Voidify" = type { i8 }
%"class.arrow::util::ArrowLog" = type <{ %"class.arrow::util::ArrowLogBase", ptr, i8, [7 x i8] }>
%"class.arrow::util::ArrowLogBase" = type { ptr }
%"class.arrow::SparseTensor" = type { ptr, %"class.std::shared_ptr", %"class.std::shared_ptr.7", %"class.std::vector", %"class.std::shared_ptr.46", %"class.std::vector.10" }
%"class.std::shared_ptr.46" = type { %"class.std::__shared_ptr.47" }
%"class.std::__shared_ptr.47" = type { ptr, %"class.std::__shared_count" }

@.str.4 = private unnamed_addr constant [120 x i8] c"generated/home/dtcxzyw/WorkSpace/Projects/compilers/llvm-opt-benchmark/bench/arrow/arrow/cpp/src/arrow/sparse_tensor.cc\00", align 1
@_ZZNK5arrow12SparseTensor8dim_nameB5cxx11EiE6kEmptyB5cxx11 = internal global %"class.std::__cxx11::basic_string" zeroinitializer, align 8
@_ZGVZNK5arrow12SparseTensor8dim_nameB5cxx11EiE6kEmptyB5cxx11 = internal global i64 0, align 8
@.str.21 = private unnamed_addr constant [1 x i8] zeroinitializer, align 1
@__dso_handle = external hidden global i8
@.str.22 = private unnamed_addr constant [60 x i8] c" Check failed: (i) < (static_cast<int>(dim_names_.size())) \00", align 1

; Function Attrs: mustprogress nounwind uwtable
define linkonce_odr void @_ZNSt15__new_allocatorIcEC2Ev(ptr noundef nonnull align 1 dereferenceable(1) %0) unnamed_addr #2 comdat align 2 {
  %2 = alloca ptr, align 8
  store ptr %0, ptr %2, align 8, !tbaa !283
  ret void
}

; Function Attrs: mustprogress nounwind uwtable
define linkonce_odr noundef nonnull align 8 dereferenceable(32) ptr @_ZNKSt6vectorINSt7__cxx1112basic_stringIcSt11char_traitsIcESaIcEEESaIS5_EEixEm(ptr noundef nonnull align 8 dereferenceable(24) %0, i64 noundef %1) #2 comdat align 2 {
  %3 = alloca ptr, align 8
  %4 = alloca i64, align 8
  store ptr %0, ptr %3, align 8, !tbaa !153
  store i64 %1, ptr %4, align 8, !tbaa !38
  %5 = load ptr, ptr %3, align 8
  %6 = getelementptr inbounds nuw %"struct.std::_Vector_base.11", ptr %5, i32 0, i32 0
  %7 = getelementptr inbounds nuw %"struct.std::_Vector_base<std::__cxx11::basic_string<char>, std::allocator<std::__cxx11::basic_string<char>>>::_Vector_impl_data", ptr %6, i32 0, i32 0
  %8 = load ptr, ptr %7, align 8, !tbaa !155
  %9 = load i64, ptr %4, align 8, !tbaa !38
  %10 = getelementptr inbounds nuw %"class.std::__cxx11::basic_string", ptr %8, i64 %9
  ret ptr %10
}

; Function Attrs: mustprogress nounwind uwtable
define linkonce_odr void @_ZN5arrow4util7VoidifyanERNS0_12ArrowLogBaseE(ptr noundef nonnull align 1 dereferenceable(1) %0, ptr noundef nonnull align 8 dereferenceable(8) %1) #2 comdat align 2 {
  %3 = alloca ptr, align 8
  %4 = alloca ptr, align 8
  store ptr %0, ptr %3, align 8, !tbaa !113
  store ptr %1, ptr %4, align 8, !tbaa !115
  ret void
}

; Function Attrs: mustprogress nounwind uwtable
define linkonce_odr void @_ZN5arrow4util7VoidifyC2Ev(ptr noundef nonnull align 1 dereferenceable(1) %0) unnamed_addr #2 comdat align 2 {
  %2 = alloca ptr, align 8
  store ptr %0, ptr %2, align 8, !tbaa !113
  ret void
}

; Function Attrs: mustprogress nounwind uwtable
define linkonce_odr noundef i64 @_ZNKSt6vectorINSt7__cxx1112basic_stringIcSt11char_traitsIcESaIcEEESaIS5_EE4sizeEv(ptr noundef nonnull align 8 dereferenceable(24) %0) #2 comdat align 2 {
  %2 = alloca ptr, align 8
  store ptr %0, ptr %2, align 8, !tbaa !153
  %3 = load ptr, ptr %2, align 8
  %4 = getelementptr inbounds nuw %"struct.std::_Vector_base.11", ptr %3, i32 0, i32 0
  %5 = getelementptr inbounds nuw %"struct.std::_Vector_base<std::__cxx11::basic_string<char>, std::allocator<std::__cxx11::basic_string<char>>>::_Vector_impl_data", ptr %4, i32 0, i32 1
  %6 = load ptr, ptr %5, align 8, !tbaa !157
  %7 = getelementptr inbounds nuw %"struct.std::_Vector_base.11", ptr %3, i32 0, i32 0
  %8 = getelementptr inbounds nuw %"struct.std::_Vector_base<std::__cxx11::basic_string<char>, std::allocator<std::__cxx11::basic_string<char>>>::_Vector_impl_data", ptr %7, i32 0, i32 0
  %9 = load ptr, ptr %8, align 8, !tbaa !155
  %10 = ptrtoint ptr %6 to i64
  %11 = ptrtoint ptr %9 to i64
  %12 = sub i64 %10, %11
  %13 = sdiv exact i64 %12, 32
  ret i64 %13
}

; Function Attrs: mustprogress nounwind uwtable
define linkonce_odr void @_ZNSt15__new_allocatorIcED2Ev(ptr noundef nonnull align 1 dereferenceable(1) %0) unnamed_addr #2 comdat align 2 {
  %2 = alloca ptr, align 8
  store ptr %0, ptr %2, align 8, !tbaa !283
  ret void
}

; Function Attrs: mustprogress nounwind uwtable
define available_externally void @_ZNSaIcEC2Ev(ptr noundef nonnull align 1 dereferenceable(1) %0) unnamed_addr #2 align 2 {
  %2 = alloca ptr, align 8
  store ptr %0, ptr %2, align 8, !tbaa !118
  %3 = load ptr, ptr %2, align 8
  call void @_ZNSt15__new_allocatorIcEC2Ev(ptr noundef nonnull align 1 dereferenceable(1) %3) #8
  ret void
}

; Function Attrs: mustprogress uwtable
define noundef nonnull align 8 dereferenceable(32) ptr @_ZNK5arrow12SparseTensor8dim_nameB5cxx11Ei(ptr noundef nonnull align 8 dereferenceable(104) %0, i32 noundef %1) #0 align 2 personality ptr @__gxx_personality_v0 {
  %3 = alloca ptr, align 8
  %4 = alloca ptr, align 8
  %5 = alloca i32, align 4
  %6 = alloca %"class.std::allocator.23", align 1
  %7 = alloca ptr, align 8
  %8 = alloca i32, align 4
  %9 = alloca %"class.arrow::util::Voidify", align 1
  %10 = alloca %"class.arrow::util::ArrowLog", align 8
  %11 = alloca i1, align 1
  %12 = alloca i1, align 1
  store ptr %0, ptr %4, align 8, !tbaa !151
  store i32 %1, ptr %5, align 4, !tbaa !160
  %13 = load ptr, ptr %4, align 8
  %14 = load atomic i8, ptr @_ZGVZNK5arrow12SparseTensor8dim_nameB5cxx11EiE6kEmptyB5cxx11 acquire, align 8
  %15 = icmp eq i8 %14, 0
  br i1 %15, label %16, label %22, !prof !162

16:                                               ; preds = %2
  %17 = call i32 @__cxa_guard_acquire(ptr @_ZGVZNK5arrow12SparseTensor8dim_nameB5cxx11EiE6kEmptyB5cxx11) #8
  %18 = icmp ne i32 %17, 0
  br i1 %18, label %19, label %22

19:                                               ; preds = %16
  call void @llvm.lifetime.start.p0(i64 1, ptr %6) #8
  call void @_ZNSaIcEC2Ev(ptr noundef nonnull align 1 dereferenceable(1) %6) #8
  invoke void @_ZNSt7__cxx1112basic_stringIcSt11char_traitsIcESaIcEEC2IS3_EEPKcRKS3_(ptr noundef nonnull align 8 dereferenceable(32) @_ZZNK5arrow12SparseTensor8dim_nameB5cxx11EiE6kEmptyB5cxx11, ptr noundef @.str.21, ptr noundef nonnull align 1 dereferenceable(1) %6)
          to label %20 unwind label %27

20:                                               ; preds = %19
  call void @_ZNSt15__new_allocatorIcED2Ev(ptr noundef nonnull align 1 dereferenceable(1) %6) #8
  call void @llvm.lifetime.end.p0(i64 1, ptr %6) #8
  %21 = call i32 @__cxa_atexit(ptr @_ZNSt7__cxx1112basic_stringIcSt11char_traitsIcESaIcEED2Ev, ptr @_ZZNK5arrow12SparseTensor8dim_nameB5cxx11EiE6kEmptyB5cxx11, ptr @__dso_handle) #8
  call void @__cxa_guard_release(ptr @_ZGVZNK5arrow12SparseTensor8dim_nameB5cxx11EiE6kEmptyB5cxx11) #8
  br label %22

22:                                               ; preds = %20, %16, %2
  %23 = getelementptr inbounds nuw %"class.arrow::SparseTensor", ptr %13, i32 0, i32 5
  %24 = call noundef i64 @_ZNKSt6vectorINSt7__cxx1112basic_stringIcSt11char_traitsIcESaIcEEESaIS5_EE4sizeEv(ptr noundef nonnull align 8 dereferenceable(24) %23) #8
  %25 = icmp eq i64 %24, 0
  br i1 %25, label %26, label %31

26:                                               ; preds = %22
  store ptr @_ZZNK5arrow12SparseTensor8dim_nameB5cxx11EiE6kEmptyB5cxx11, ptr %3, align 8
  br label %68

27:                                               ; preds = %19
  %28 = landingpad { ptr, i32 }
          cleanup
  %29 = extractvalue { ptr, i32 } %28, 0
  store ptr %29, ptr %7, align 8
  %30 = extractvalue { ptr, i32 } %28, 1
  store i32 %30, ptr %8, align 4
  call void @_ZNSt15__new_allocatorIcED2Ev(ptr noundef nonnull align 1 dereferenceable(1) %6) #8
  call void @llvm.lifetime.end.p0(i64 1, ptr %6) #8
  call void @__cxa_guard_abort(ptr @_ZGVZNK5arrow12SparseTensor8dim_nameB5cxx11EiE6kEmptyB5cxx11) #8
  br label %70

31:                                               ; preds = %22
  %32 = load i32, ptr %5, align 4, !tbaa !160
  %33 = getelementptr inbounds nuw %"class.arrow::SparseTensor", ptr %13, i32 0, i32 5
  %34 = call noundef i64 @_ZNKSt6vectorINSt7__cxx1112basic_stringIcSt11char_traitsIcESaIcEEESaIS5_EE4sizeEv(ptr noundef nonnull align 8 dereferenceable(24) %33) #8
  %35 = trunc i64 %34 to i32
  %36 = icmp slt i32 %32, %35
  %37 = xor i1 %36, true
  %38 = xor i1 %37, true
  %39 = zext i1 %38 to i64
  %40 = call i64 @llvm.expect.i64(i64 %39, i64 1)
  %41 = icmp ne i64 %40, 0
  call void @llvm.lifetime.start.p0(i64 1, ptr %9) #8
  store i1 false, ptr %11, align 1
  store i1 false, ptr %12, align 1
  br i1 %41, label %42, label %43

42:                                               ; preds = %31
  br label %47

43:                                               ; preds = %31
  call void @_ZN5arrow4util7VoidifyC2Ev(ptr noundef nonnull align 1 dereferenceable(1) %9)
  call void @llvm.lifetime.start.p0(i64 24, ptr %10) #8
  store i1 true, ptr %11, align 1
  call void @_ZN5arrow4util8ArrowLogC1EPKciNS0_13ArrowLogLevelE(ptr noundef nonnull align 8 dereferenceable(17) %10, ptr noundef @.str.4, i32 noundef 439, i32 noundef 3)
  store i1 true, ptr %12, align 1
  %44 = invoke noundef nonnull align 8 dereferenceable(8) ptr @_ZN5arrow4util12ArrowLogBaselsIA60_cEERS1_RKT_(ptr noundef nonnull align 8 dereferenceable(8) %10, ptr noundef nonnull align 1 dereferenceable(60) @.str.22)
          to label %45 unwind label %58

45:                                               ; preds = %43
  invoke void @_ZN5arrow4util7VoidifyanERNS0_12ArrowLogBaseE(ptr noundef nonnull align 1 dereferenceable(1) %9, ptr noundef nonnull align 8 dereferenceable(8) %44)
          to label %46 unwind label %58

46:                                               ; preds = %45
  br label %47

47:                                               ; preds = %46, %42
  %48 = load i1, ptr %12, align 1
  br i1 %48, label %49, label %50

49:                                               ; preds = %47
  call void @_ZN5arrow4util8ArrowLogD1Ev(ptr noundef nonnull align 8 dereferenceable(17) %10) #8
  br label %50

50:                                               ; preds = %49, %47
  %51 = load i1, ptr %11, align 1
  br i1 %51, label %52, label %53

52:                                               ; preds = %50
  call void @llvm.lifetime.end.p0(i64 24, ptr %10) #8
  br label %53

53:                                               ; preds = %52, %50
  call void @llvm.lifetime.end.p0(i64 1, ptr %9) #8
  %54 = getelementptr inbounds nuw %"class.arrow::SparseTensor", ptr %13, i32 0, i32 5
  %55 = load i32, ptr %5, align 4, !tbaa !160
  %56 = sext i32 %55 to i64
  %57 = call noundef nonnull align 8 dereferenceable(32) ptr @_ZNKSt6vectorINSt7__cxx1112basic_stringIcSt11char_traitsIcESaIcEEESaIS5_EEixEm(ptr noundef nonnull align 8 dereferenceable(24) %54, i64 noundef %56) #8
  store ptr %57, ptr %3, align 8
  br label %68

58:                                               ; preds = %45, %43
  %59 = landingpad { ptr, i32 }
          cleanup
  %60 = extractvalue { ptr, i32 } %59, 0
  store ptr %60, ptr %7, align 8
  %61 = extractvalue { ptr, i32 } %59, 1
  store i32 %61, ptr %8, align 4
  %62 = load i1, ptr %12, align 1
  br i1 %62, label %63, label %64

63:                                               ; preds = %58
  call void @_ZN5arrow4util8ArrowLogD1Ev(ptr noundef nonnull align 8 dereferenceable(17) %10) #8
  br label %64

64:                                               ; preds = %63, %58
  %65 = load i1, ptr %11, align 1
  br i1 %65, label %66, label %67

66:                                               ; preds = %64
  call void @llvm.lifetime.end.p0(i64 24, ptr %10) #8
  br label %67

67:                                               ; preds = %66, %64
  call void @llvm.lifetime.end.p0(i64 1, ptr %9) #8
  br label %70

68:                                               ; preds = %53, %26
  %69 = load ptr, ptr %3, align 8
  ret ptr %69

70:                                               ; preds = %67, %27
  %71 = load ptr, ptr %7, align 8
  %72 = load i32, ptr %8, align 4
  %73 = insertvalue { ptr, i32 } poison, ptr %71, 0
  %74 = insertvalue { ptr, i32 } %73, i32 %72, 1
  resume { ptr, i32 } %74
}