; Function Attrs: mustprogress uwtable
define noundef nonnull align 8 dereferenceable(32) ptr @_ZNK5arrow12SparseTensor8dim_nameB5cxx11Ei(ptr noundef nonnull readonly align 8 captures(none) dereferenceable(104) %0, i32 noundef %1) local_unnamed_addr #0 align 2 personality ptr @__gxx_personality_v0 {
  %3 = alloca %"class.std::allocator.23", align 1
  %4 = alloca %"class.arrow::util::ArrowLog", align 8
  %5 = load atomic i8, ptr @_ZGVZNK5arrow12SparseTensor8dim_nameB5cxx11EiE6kEmptyB5cxx11 acquire, align 8
  %6 = icmp eq i8 %5, 0
  br i1 %6, label %7, label %12, !prof !317

7:                                                ; preds = %2
  %8 = tail call i32 @__cxa_guard_acquire(ptr nonnull @_ZGVZNK5arrow12SparseTensor8dim_nameB5cxx11EiE6kEmptyB5cxx11) #24
  %.not = icmp eq i32 %8, 0
  br i1 %.not, label %12, label %9

9:                                                ; preds = %7
  call void @llvm.lifetime.start.p0(i64 1, ptr nonnull %3) #24
  invoke void @_ZNSt7__cxx1112basic_stringIcSt11char_traitsIcESaIcEEC2IS3_EEPKcRKS3_(ptr noundef nonnull align 8 dereferenceable(32) @_ZZNK5arrow12SparseTensor8dim_nameB5cxx11EiE6kEmptyB5cxx11, ptr noundef nonnull @.str.21, ptr noundef nonnull align 1 dereferenceable(1) %3)
          to label %10 unwind label %18

10:                                               ; preds = %9
  call void @llvm.lifetime.end.p0(i64 1, ptr nonnull %3) #24
  %11 = call i32 @__cxa_atexit(ptr nonnull @_ZNSt7__cxx1112basic_stringIcSt11char_traitsIcESaIcEED2Ev, ptr nonnull @_ZZNK5arrow12SparseTensor8dim_nameB5cxx11EiE6kEmptyB5cxx11, ptr nonnull @__dso_handle) #24
  call void @__cxa_guard_release(ptr nonnull @_ZGVZNK5arrow12SparseTensor8dim_nameB5cxx11EiE6kEmptyB5cxx11) #24
  br label %12

12:                                               ; preds = %10, %7, %2
  %13 = getelementptr inbounds nuw i8, ptr %0, i64 80
  %14 = getelementptr inbounds nuw i8, ptr %0, i64 88
  %15 = load ptr, ptr %14, align 8, !tbaa !311
  %16 = load ptr, ptr %13, align 8, !tbaa !313
  %17 = icmp eq ptr %15, %16
  br i1 %17, label %33, label %20

18:                                               ; preds = %9
  %19 = landingpad { ptr, i32 }
          cleanup
  call void @llvm.lifetime.end.p0(i64 1, ptr nonnull %3) #24
  call void @__cxa_guard_abort(ptr nonnull @_ZGVZNK5arrow12SparseTensor8dim_nameB5cxx11EiE6kEmptyB5cxx11) #24
  br label %34

20:                                               ; preds = %12
  %21 = ptrtoint ptr %16 to i64
  %22 = ptrtoint ptr %15 to i64
  %23 = sub i64 %22, %21
  %24 = lshr exact i64 %23, 5
  %25 = trunc i64 %24 to i32
  %.not14 = icmp slt i32 %1, %25
  br i1 %.not14, label %.critedge15, label %26, !prof !118

26:                                               ; preds = %20
  call void @llvm.lifetime.start.p0(i64 24, ptr nonnull %4) #24
  call void @_ZN5arrow4util8ArrowLogC1EPKciNS0_13ArrowLogLevelE(ptr noundef nonnull align 8 dereferenceable(17) %4, ptr noundef nonnull @.str.4, i32 noundef 439, i32 noundef 3)
  %27 = invoke noundef nonnull align 8 dereferenceable(8) ptr @_ZN5arrow4util12ArrowLogBaselsIA60_cEERS1_RKT_(ptr noundef nonnull align 8 dereferenceable(8) %4, ptr noundef nonnull align 1 dereferenceable(60) @.str.22)
          to label %.critedge unwind label %31

.critedge:                                        ; preds = %26
  call void @_ZN5arrow4util8ArrowLogD1Ev(ptr noundef nonnull align 8 dereferenceable(17) %4) #24
  call void @llvm.lifetime.end.p0(i64 24, ptr nonnull %4) #24
  %.pre = load ptr, ptr %13, align 8, !tbaa !313
  br label %.critedge15

.critedge15:                                      ; preds = %20, %.critedge
  %28 = phi ptr [ %16, %20 ], [ %.pre, %.critedge ]
  %29 = sext i32 %1 to i64
  %30 = getelementptr inbounds nuw %"class.std::__cxx11::basic_string", ptr %28, i64 %29
  br label %33

31:                                               ; preds = %26
  %32 = landingpad { ptr, i32 }
          cleanup
  call void @_ZN5arrow4util8ArrowLogD1Ev(ptr noundef nonnull align 8 dereferenceable(17) %4) #24
  call void @llvm.lifetime.end.p0(i64 24, ptr nonnull %4) #24
  br label %34

33:                                               ; preds = %12, %.critedge15
  %.012 = phi ptr [ %30, %.critedge15 ], [ @_ZZNK5arrow12SparseTensor8dim_nameB5cxx11EiE6kEmptyB5cxx11, %12 ]
  ret ptr %.012

34:                                               ; preds = %31, %18
  %.pn = phi { ptr, i32 } [ %32, %31 ], [ %19, %18 ]
  resume { ptr, i32 } %.pn
}